target datalayout = "e-m:e-p270:32:32-p271:32:32-p272:64:64-i64:64-i128:128-f80:128-n8:16:32:64-S128"
target triple = "x86_64-pc-linux-gnu"

%struct.H5FD_driver_prop_t = type { i64, ptr, ptr }
%struct.H5FD_class_t = type { i32, i32, ptr, i64, i32, ptr, ptr, ptr, ptr, i64, ptr, ptr, ptr, i64, ptr, ptr, ptr, ptr, ptr, ptr, ptr, ptr, ptr, ptr, ptr, ptr, ptr, ptr, ptr, ptr, ptr, ptr, ptr, ptr, ptr, ptr, ptr, ptr, ptr, [7 x i32] }

@H5P_init_g = external global i8, align 1
@H5_libterm_g = external global i8, align 1

; Function Attrs: nounwind uwtable
define internal i32 @H5P__facc_file_driver_cmp(ptr noundef %0, ptr noundef %1, i64 noundef %2) #0 {
  %4 = alloca ptr, align 8
  %5 = alloca ptr, align 8
  %6 = alloca i64, align 8
  %7 = alloca ptr, align 8
  %8 = alloca ptr, align 8
  %9 = alloca ptr, align 8
  %10 = alloca ptr, align 8
  %11 = alloca i32, align 4
  %12 = alloca i32, align 4
  store ptr %0, ptr %4, align 8, !tbaa !32
  store ptr %1, ptr %5, align 8, !tbaa !32
  store i64 %2, ptr %6, align 8, !tbaa !8
  call void @llvm.lifetime.start.p0(i64 8, ptr %7) #10
  %13 = load ptr, ptr %4, align 8, !tbaa !32
  store ptr %13, ptr %7, align 8, !tbaa !32
  call void @llvm.lifetime.start.p0(i64 8, ptr %8) #10
  %14 = load ptr, ptr %5, align 8, !tbaa !32
  store ptr %14, ptr %8, align 8, !tbaa !32
  call void @llvm.lifetime.start.p0(i64 8, ptr %9) #10
  call void @llvm.lifetime.start.p0(i64 8, ptr %10) #10
  call void @llvm.lifetime.start.p0(i64 4, ptr %11) #10
  call void @llvm.lifetime.start.p0(i64 4, ptr %12) #10
  store i32 0, ptr %12, align 4, !tbaa !20
  %15 = load i8, ptr @H5P_init_g, align 1, !tbaa !22, !range !24, !noundef !25
  %16 = trunc i8 %15 to i1
  br i1 %16, label %21, label %17

17:                                               ; preds = %3
  %18 = load i8, ptr @H5_libterm_g, align 1, !tbaa !22, !range !24, !noundef !25
  %19 = trunc i8 %18 to i1
  %20 = xor i1 %19, true
  br label %21

21:                                               ; preds = %17, %3
  %22 = phi i1 [ true, %3 ], [ %20, %17 ]
  %23 = xor i1 %22, true
  %24 = xor i1 %23, true
  %25 = zext i1 %24 to i32
  %26 = sext i32 %25 to i64
  %27 = call i64 @llvm.expect.i64(i64 %26, i64 1)
  %28 = icmp ne i64 %27, 0
  br i1 %28, label %29, label %216

29:                                               ; preds = %21
  %30 = load ptr, ptr %7, align 8, !tbaa !32
  %31 = getelementptr inbounds nuw %struct.H5FD_driver_prop_t, ptr %30, i32 0, i32 0
  %32 = load i64, ptr %31, align 8, !tbaa !10
  %33 = call ptr @H5FD_get_class(i64 noundef %32)
  store ptr %33, ptr %9, align 8, !tbaa !131
  %34 = icmp eq ptr null, %33
  br i1 %34, label %35, label %39

35:                                               ; preds = %29
  br label %36

36:                                               ; preds = %35
  store i32 -1, ptr %12, align 4, !tbaa !20
  br label %215

37:                                               ; No predecessors!
  br label %38

38:                                               ; preds = %37
  br label %39

39:                                               ; preds = %38, %29
  %40 = load ptr, ptr %8, align 8, !tbaa !32
  %41 = getelementptr inbounds nuw %struct.H5FD_driver_prop_t, ptr %40, i32 0, i32 0
  %42 = load i64, ptr %41, align 8, !tbaa !10
  %43 = call ptr @H5FD_get_class(i64 noundef %42)
  store ptr %43, ptr %10, align 8, !tbaa !131
  %44 = icmp eq ptr null, %43
  br i1 %44, label %45, label %49

45:                                               ; preds = %39
  br label %46

46:                                               ; preds = %45
  store i32 1, ptr %12, align 4, !tbaa !20
  br label %215

47:                                               ; No predecessors!
  br label %48

48:                                               ; preds = %47
  br label %49

49:                                               ; preds = %48, %39
  %50 = load ptr, ptr %9, align 8, !tbaa !131
  %51 = getelementptr inbounds nuw %struct.H5FD_class_t, ptr %50, i32 0, i32 2
  %52 = load ptr, ptr %51, align 8, !tbaa !133
  %53 = icmp eq ptr %52, null
  br i1 %53, label %54, label %63

54:                                               ; preds = %49
  %55 = load ptr, ptr %10, align 8, !tbaa !131
  %56 = getelementptr inbounds nuw %struct.H5FD_class_t, ptr %55, i32 0, i32 2
  %57 = load ptr, ptr %56, align 8, !tbaa !133
  %58 = icmp ne ptr %57, null
  br i1 %58, label %59, label %63

59:                                               ; preds = %54
  br label %60

60:                                               ; preds = %59
  store i32 -1, ptr %12, align 4, !tbaa !20
  br label %215

61:                                               ; No predecessors!
  br label %62

62:                                               ; preds = %61
  br label %63

63:                                               ; preds = %62, %54, %49
  %64 = load ptr, ptr %9, align 8, !tbaa !131
  %65 = getelementptr inbounds nuw %struct.H5FD_class_t, ptr %64, i32 0, i32 2
  %66 = load ptr, ptr %65, align 8, !tbaa !133
  %67 = icmp ne ptr %66, null
  br i1 %67, label %68, label %77

68:                                               ; preds = %63
  %69 = load ptr, ptr %10, align 8, !tbaa !131
  %70 = getelementptr inbounds nuw %struct.H5FD_class_t, ptr %69, i32 0, i32 2
  %71 = load ptr, ptr %70, align 8, !tbaa !133
  %72 = icmp eq ptr %71, null
  br i1 %72, label %73, label %77

73:                                               ; preds = %68
  br label %74

74:                                               ; preds = %73
  store i32 1, ptr %12, align 4, !tbaa !20
  br label %215

75:                                               ; No predecessors!
  br label %76

76:                                               ; preds = %75
  br label %77

77:                                               ; preds = %76, %68, %63
  %78 = load ptr, ptr %9, align 8, !tbaa !131
  %79 = getelementptr inbounds nuw %struct.H5FD_class_t, ptr %78, i32 0, i32 2
  %80 = load ptr, ptr %79, align 8, !tbaa !133
  %81 = load ptr, ptr %10, align 8, !tbaa !131
  %82 = getelementptr inbounds nuw %struct.H5FD_class_t, ptr %81, i32 0, i32 2
  %83 = load ptr, ptr %82, align 8, !tbaa !133
  %84 = call i32 @strcmp(ptr noundef %80, ptr noundef %83) #11
  store i32 %84, ptr %11, align 4, !tbaa !20
  %85 = icmp ne i32 0, %84
  br i1 %85, label %86, label %91

86:                                               ; preds = %77
  br label %87

87:                                               ; preds = %86
  %88 = load i32, ptr %11, align 4, !tbaa !20
  store i32 %88, ptr %12, align 4, !tbaa !20
  br label %215

89:                                               ; No predecessors!
  br label %90

90:                                               ; preds = %89
  br label %91

91:                                               ; preds = %90, %77
  %92 = load ptr, ptr %9, align 8, !tbaa !131
  %93 = getelementptr inbounds nuw %struct.H5FD_class_t, ptr %92, i32 0, i32 9
  %94 = load i64, ptr %93, align 8, !tbaa !135
  %95 = load ptr, ptr %10, align 8, !tbaa !131
  %96 = getelementptr inbounds nuw %struct.H5FD_class_t, ptr %95, i32 0, i32 9
  %97 = load i64, ptr %96, align 8, !tbaa !135
  %98 = icmp ult i64 %94, %97
  br i1 %98, label %99, label %103

99:                                               ; preds = %91
  br label %100

100:                                              ; preds = %99
  store i32 -1, ptr %12, align 4, !tbaa !20
  br label %215

101:                                              ; No predecessors!
  br label %102

102:                                              ; preds = %101
  br label %103

103:                                              ; preds = %102, %91
  %104 = load ptr, ptr %9, align 8, !tbaa !131
  %105 = getelementptr inbounds nuw %struct.H5FD_class_t, ptr %104, i32 0, i32 9
  %106 = load i64, ptr %105, align 8, !tbaa !135
  %107 = load ptr, ptr %10, align 8, !tbaa !131
  %108 = getelementptr inbounds nuw %struct.H5FD_class_t, ptr %107, i32 0, i32 9
  %109 = load i64, ptr %108, align 8, !tbaa !135
  %110 = icmp ugt i64 %106, %109
  br i1 %110, label %111, label %115

111:                                              ; preds = %103
  br label %112

112:                                              ; preds = %111
  store i32 1, ptr %12, align 4, !tbaa !20
  br label %215

113:                                              ; No predecessors!
  br label %114

114:                                              ; preds = %113
  br label %115

115:                                              ; preds = %114, %103
  %116 = load ptr, ptr %7, align 8, !tbaa !32
  %117 = getelementptr inbounds nuw %struct.H5FD_driver_prop_t, ptr %116, i32 0, i32 1
  %118 = load ptr, ptr %117, align 8, !tbaa !13
  %119 = icmp eq ptr %118, null
  br i1 %119, label %120, label %129

120:                                              ; preds = %115
  %121 = load ptr, ptr %8, align 8, !tbaa !32
  %122 = getelementptr inbounds nuw %struct.H5FD_driver_prop_t, ptr %121, i32 0, i32 1
  %123 = load ptr, ptr %122, align 8, !tbaa !13
  %124 = icmp ne ptr %123, null
  br i1 %124, label %125, label %129

125:                                              ; preds = %120
  br label %126

126:                                              ; preds = %125
  store i32 -1, ptr %12, align 4, !tbaa !20
  br label %215

127:                                              ; No predecessors!
  br label %128

128:                                              ; preds = %127
  br label %129

129:                                              ; preds = %128, %120, %115
  %130 = load ptr, ptr %7, align 8, !tbaa !32
  %131 = getelementptr inbounds nuw %struct.H5FD_driver_prop_t, ptr %130, i32 0, i32 1
  %132 = load ptr, ptr %131, align 8, !tbaa !13
  %133 = icmp ne ptr %132, null
  br i1 %133, label %134, label %143

134:                                              ; preds = %129
  %135 = load ptr, ptr %8, align 8, !tbaa !32
  %136 = getelementptr inbounds nuw %struct.H5FD_driver_prop_t, ptr %135, i32 0, i32 1
  %137 = load ptr, ptr %136, align 8, !tbaa !13
  %138 = icmp eq ptr %137, null
  br i1 %138, label %139, label %143

139:                                              ; preds = %134
  br label %140

140:                                              ; preds = %139
  store i32 1, ptr %12, align 4, !tbaa !20
  br label %215

141:                                              ; No predecessors!
  br label %142

142:                                              ; preds = %141
  br label %143

143:                                              ; preds = %142, %134, %129
  %144 = load ptr, ptr %7, align 8, !tbaa !32
  %145 = getelementptr inbounds nuw %struct.H5FD_driver_prop_t, ptr %144, i32 0, i32 1
  %146 = load ptr, ptr %145, align 8, !tbaa !13
  %147 = icmp ne ptr %146, null
  br i1 %147, label %148, label %166

148:                                              ; preds = %143
  %149 = load ptr, ptr %7, align 8, !tbaa !32
  %150 = getelementptr inbounds nuw %struct.H5FD_driver_prop_t, ptr %149, i32 0, i32 1
  %151 = load ptr, ptr %150, align 8, !tbaa !13
  %152 = load ptr, ptr %8, align 8, !tbaa !32
  %153 = getelementptr inbounds nuw %struct.H5FD_driver_prop_t, ptr %152, i32 0, i32 1
  %154 = load ptr, ptr %153, align 8, !tbaa !13
  %155 = load ptr, ptr %9, align 8, !tbaa !131
  %156 = getelementptr inbounds nuw %struct.H5FD_class_t, ptr %155, i32 0, i32 9
  %157 = load i64, ptr %156, align 8, !tbaa !135
  %158 = call i32 @memcmp(ptr noundef %151, ptr noundef %154, i64 noundef %157) #11
  store i32 %158, ptr %11, align 4, !tbaa !20
  %159 = icmp ne i32 0, %158
  br i1 %159, label %160, label %165

160:                                              ; preds = %148
  br label %161

161:                                              ; preds = %160
  %162 = load i32, ptr %11, align 4, !tbaa !20
  store i32 %162, ptr %12, align 4, !tbaa !20
  br label %215

163:                                              ; No predecessors!
  br label %164

164:                                              ; preds = %163
  br label %165

165:                                              ; preds = %164, %148
  br label %166

166:                                              ; preds = %165, %143
  %167 = load ptr, ptr %7, align 8, !tbaa !32
  %168 = getelementptr inbounds nuw %struct.H5FD_driver_prop_t, ptr %167, i32 0, i32 2
  %169 = load ptr, ptr %168, align 8, !tbaa !14
  %170 = icmp eq ptr %169, null
  br i1 %170, label %171, label %180

171:                                              ; preds = %166
  %172 = load ptr, ptr %8, align 8, !tbaa !32
  %173 = getelementptr inbounds nuw %struct.H5FD_driver_prop_t, ptr %172, i32 0, i32 2
  %174 = load ptr, ptr %173, align 8, !tbaa !14
  %175 = icmp ne ptr %174, null
  br i1 %175, label %176, label %180

176:                                              ; preds = %171
  br label %177

177:                                              ; preds = %176
  store i32 -1, ptr %12, align 4, !tbaa !20
  br label %215

178:                                              ; No predecessors!
  br label %179

179:                                              ; preds = %178
  br label %180

180:                                              ; preds = %179, %171, %166
  %181 = load ptr, ptr %7, align 8, !tbaa !32
  %182 = getelementptr inbounds nuw %struct.H5FD_driver_prop_t, ptr %181, i32 0, i32 2
  %183 = load ptr, ptr %182, align 8, !tbaa !14
  %184 = icmp ne ptr %183, null
  br i1 %184, label %185, label %194

185:                                              ; preds = %180
  %186 = load ptr, ptr %8, align 8, !tbaa !32
  %187 = getelementptr inbounds nuw %struct.H5FD_driver_prop_t, ptr %186, i32 0, i32 2
  %188 = load ptr, ptr %187, align 8, !tbaa !14
  %189 = icmp eq ptr %188, null
  br i1 %189, label %190, label %194

190:                                              ; preds = %185
  br label %191

191:                                              ; preds = %190
  store i32 1, ptr %12, align 4, !tbaa !20
  br label %215

192:                                              ; No predecessors!
  br label %193

193:                                              ; preds = %192
  br label %194

194:                                              ; preds = %193, %185, %180
  %195 = load ptr, ptr %7, align 8, !tbaa !32
  %196 = getelementptr inbounds nuw %struct.H5FD_driver_prop_t, ptr %195, i32 0, i32 2
  %197 = load ptr, ptr %196, align 8, !tbaa !14
  %198 = icmp ne ptr %197, null
  br i1 %198, label %199, label %214

199:                                              ; preds = %194
  %200 = load ptr, ptr %7, align 8, !tbaa !32
  %201 = getelementptr inbounds nuw %struct.H5FD_driver_prop_t, ptr %200, i32 0, i32 2
  %202 = load ptr, ptr %201, align 8, !tbaa !14
  %203 = load ptr, ptr %8, align 8, !tbaa !32
  %204 = getelementptr inbounds nuw %struct.H5FD_driver_prop_t, ptr %203, i32 0, i32 2
  %205 = load ptr, ptr %204, align 8, !tbaa !14
  %206 = call i32 @strcmp(ptr noundef %202, ptr noundef %205) #11
  store i32 %206, ptr %11, align 4, !tbaa !20
  %207 = icmp ne i32 0, %206
  br i1 %207, label %208, label %213

208:                                              ; preds = %199
  br label %209

209:                                              ; preds = %208
  %210 = load i32, ptr %11, align 4, !tbaa !20
  store i32 %210, ptr %12, align 4, !tbaa !20
  br label %215

211:                                              ; No predecessors!
  br label %212

212:                                              ; preds = %211
  br label %213

213:                                              ; preds = %212, %199
  br label %214

214:                                              ; preds = %213, %194
  br label %215

215:                                              ; preds = %214, %209, %191, %177, %161, %140, %126, %112, %100, %87, %74, %60, %46, %36
  br label %216

216:                                              ; preds = %215, %21
  %217 = load i32, ptr %12, align 4, !tbaa !20
  call void @llvm.lifetime.end.p0(i64 4, ptr %12) #10
  call void @llvm.lifetime.end.p0(i64 4, ptr %11) #10
  call void @llvm.lifetime.end.p0(i64 8, ptr %10) #10
  call void @llvm.lifetime.end.p0(i64 8, ptr %9) #10
  call void @llvm.lifetime.end.p0(i64 8, ptr %8) #10
  call void @llvm.lifetime.end.p0(i64 8, ptr %7) #10
  ret i32 %217
}