; Function Attrs: nounwind uwtable
define internal i32 @H5P__facc_file_driver_cmp(ptr noundef readonly captures(none) %0, ptr noundef readonly captures(none) %1, i64 %2) #0 {
  %4 = load i8, ptr @H5P_init_g, align 1, !tbaa !16, !range !18, !noundef !19
  %5 = trunc nuw i8 %4 to i1
  %6 = load i8, ptr @H5_libterm_g, align 1, !range !18
  %7 = trunc nuw i8 %6 to i1
  %8 = xor i1 %7, true
  %9 = select i1 %5, i1 true, i1 %8
  br i1 %9, label %10, label %.thread54, !prof !20

10:                                               ; preds = %3
  %11 = load i64, ptr %0, align 8, !tbaa !7
  %12 = tail call ptr @H5FD_get_class(i64 noundef %11) #15
  %13 = icmp eq ptr %12, null
  br i1 %13, label %.thread54, label %14

14:                                               ; preds = %10
  %15 = load i64, ptr %1, align 8, !tbaa !7
  %16 = tail call ptr @H5FD_get_class(i64 noundef %15) #15
  %17 = icmp eq ptr %16, null
  br i1 %17, label %.thread54, label %18

18:                                               ; preds = %14
  %19 = getelementptr inbounds nuw i8, ptr %12, i64 8
  %20 = load ptr, ptr %19, align 8, !tbaa !117
  %21 = icmp eq ptr %20, null
  %22 = getelementptr inbounds nuw i8, ptr %16, i64 8
  %23 = load ptr, ptr %22, align 8, !tbaa !117
  br i1 %21, label %.thread54, label %24

24:                                               ; preds = %18
  %.not.not = icmp eq ptr %23, null
  br i1 %.not.not, label %.thread54, label %.thread

.thread:                                          ; preds = %24
  %25 = tail call i32 @strcmp(ptr noundef nonnull dereferenceable(1) %20, ptr noundef nonnull dereferenceable(1) %23) #16
  %.not42 = icmp eq i32 %25, 0
  br i1 %.not42, label %26, label %.thread54

26:                                               ; preds = %.thread
  %27 = getelementptr inbounds nuw i8, ptr %12, i64 64
  %28 = load i64, ptr %27, align 8, !tbaa !119
  %29 = getelementptr inbounds nuw i8, ptr %16, i64 64
  %30 = load i64, ptr %29, align 8, !tbaa !119
  %31 = icmp ult i64 %28, %30
  br i1 %31, label %.thread54, label %32

32:                                               ; preds = %26
  %33 = icmp ugt i64 %28, %30
  br i1 %33, label %.thread54, label %34

34:                                               ; preds = %32
  %35 = getelementptr inbounds nuw i8, ptr %0, i64 8
  %36 = load ptr, ptr %35, align 8, !tbaa !22
  %37 = icmp eq ptr %36, null
  %38 = getelementptr inbounds nuw i8, ptr %1, i64 8
  %39 = load ptr, ptr %38, align 8, !tbaa !22
  %.not43 = icmp eq ptr %39, null
  br i1 %37, label %40, label %41

40:                                               ; preds = %34
  br i1 %.not43, label %.thread52, label %.thread54

41:                                               ; preds = %34
  br i1 %.not43, label %.thread54, label %42

42:                                               ; preds = %41
  %43 = tail call i32 @memcmp(ptr noundef nonnull %36, ptr noundef nonnull %39, i64 noundef %28) #16
  %.not46 = icmp eq i32 %43, 0
  br i1 %.not46, label %.thread52, label %.thread54

.thread52:                                        ; preds = %40, %42
  %44 = getelementptr inbounds nuw i8, ptr %0, i64 16
  %45 = load ptr, ptr %44, align 8, !tbaa !23
  %46 = icmp eq ptr %45, null
  %47 = getelementptr inbounds nuw i8, ptr %1, i64 16
  %48 = load ptr, ptr %47, align 8, !tbaa !23
  br i1 %46, label %49, label %50

49:                                               ; preds = %.thread52
  %.not47 = icmp ne ptr %48, null
  %spec.select = sext i1 %.not47 to i32
  br label %.thread54

50:                                               ; preds = %.thread52
  %51 = icmp eq ptr %48, null
  br i1 %51, label %.thread54, label %52

52:                                               ; preds = %50
  %53 = tail call i32 @strcmp(ptr noundef nonnull dereferenceable(1) %45, ptr noundef nonnull dereferenceable(1) %48) #16
  br label %.thread54

.thread54:                                        ; preds = %18, %49, %52, %50, %42, %41, %40, %32, %26, %.thread, %24, %14, %10, %3
  %.0 = phi i32 [ 0, %3 ], [ -1, %10 ], [ 1, %14 ], [ 1, %24 ], [ %25, %.thread ], [ -1, %26 ], [ 1, %32 ], [ -1, %40 ], [ 1, %41 ], [ %43, %42 ], [ 1, %50 ], [ %53, %52 ], [ %spec.select, %49 ], [ -1, %18 ]
  ret i32 %.0
}